; ModuleID = '28/585.c'
source_filename = "28/585.c"
target datalayout = "e-m:e-p270:32:32-p271:32:32-p272:64:64-i64:64-f80:128-n8:16:32:64-S128"
target triple = "x86_64-pc-linux-gnu"

@.str = private unnamed_addr constant [3 x i8] c"%s\00", align 1
@.str.1 = private unnamed_addr constant [3 x i8] c"%d\00", align 1
@.str.2 = private unnamed_addr constant [4 x i8] c",%d\00", align 1

; Function Attrs: noinline nounwind uwtable
define dso_local void @main() #0 {
  %1 = alloca [20 x i8], align 16
  %2 = alloca i8, align 1
  %3 = getelementptr inbounds [20 x i8], [20 x i8]* %1, i64 0, i64 0
  %4 = call i32 (i8*, ...) @__isoc99_scanf(i8* getelementptr inbounds ([3 x i8], [3 x i8]* @.str, i64 0, i64 0), i8* %3)
  %5 = getelementptr inbounds [20 x i8], [20 x i8]* %1, i64 0, i64 0
  %6 = call i64 @strlen(i8* %5) #3
  %7 = call i32 (i8*, ...) @printf(i8* getelementptr inbounds ([3 x i8], [3 x i8]* @.str.1, i64 0, i64 0), i64 %6)
  %8 = call i32 @getchar()
  %9 = trunc i32 %8 to i8
  store i8 %9, i8* %2, align 1
  %10 = load i8, i8* %2, align 1
  %11 = sext i8 %10 to i32
  %12 = icmp eq i32 %11, 32
  br i1 %12, label %13, label %28

13:                                               ; preds = %0
  br label %14

14:                                               ; preds = %26, %13
  %15 = getelementptr inbounds [20 x i8], [20 x i8]* %1, i64 0, i64 0
  %16 = call i32 (i8*, ...) @__isoc99_scanf(i8* getelementptr inbounds ([3 x i8], [3 x i8]* @.str, i64 0, i64 0), i8* %15)
  %17 = getelementptr inbounds [20 x i8], [20 x i8]* %1, i64 0, i64 0
  %18 = call i64 @strlen(i8* %17) #3
  %19 = call i32 (i8*, ...) @printf(i8* getelementptr inbounds ([4 x i8], [4 x i8]* @.str.2, i64 0, i64 0), i64 %18)
  %20 = call i32 @getchar()
  %21 = trunc i32 %20 to i8
  store i8 %21, i8* %2, align 1
  %22 = load i8, i8* %2, align 1
  %23 = sext i8 %22 to i32
  %24 = icmp ne i32 %23, 32
  br i1 %24, label %25, label %26

25:                                               ; preds = %14
  br label %27

26:                                               ; preds = %14
  br label %14

27:                                               ; preds = %25
  br label %28

28:                                               ; preds = %27, %0
  ret void
}

declare dso_local i32 @__isoc99_scanf(i8*, ...) #1

declare dso_local i32 @printf(i8*, ...) #1

; Function Attrs: nounwind readonly
declare dso_local i64 @strlen(i8*) #2

declare dso_local i32 @getchar() #1


!llvm.module.flags = !{!0}
!llvm.ident = !{!1}

!0 = !{i32 1, !"wchar_size", i32 4}
!1 = !{!"clang version 10.0.0-4ubuntu1 "}
